target datalayout = "e-m:e-p270:32:32-p271:32:32-p272:64:64-i64:64-i128:128-f80:128-n8:16:32:64-S128"
target triple = "x86_64-pc-linux-gnu"

%struct.GVJ_s = type { ptr, ptr, ptr, ptr, ptr, ptr, i32, ptr, ptr, ptr, ptr, i64, i64, ptr, i32, %struct.gvplugin_active_render_s, %struct.gvplugin_active_device_s, %struct.gvplugin_active_loadimage_t, ptr, %struct.pointf_s, i8, ptr, i32, ptr, i8, ptr, i32, i32, i32, %struct.point, %struct.point, %struct.point, %struct.point, %struct.point, i32, %struct.boxf, %struct.pointf_s, %struct.boxf, %struct.boxf, %struct.pointf_s, %struct.pointf_s, double, i32, %struct.pointf_s, %struct.boxf, %struct.pointf_s, %struct.pointf_s, i32, i32, %struct.box, %struct.box, %struct.pointf_s, %struct.pointf_s, %struct.pointf_s, i8, i8, i8, i8, i8, i8, %struct.pointf_s, %struct.pointf_s, ptr, ptr, ptr, ptr, ptr, ptr, i64, ptr }
%struct.gvplugin_active_render_s = type { ptr, i32, ptr, ptr }
%struct.gvplugin_active_device_s = type { ptr, i32, ptr, ptr }
%struct.gvplugin_active_loadimage_t = type { ptr, i32, ptr }
%struct.point = type { i32, i32 }
%struct.boxf = type { %struct.pointf_s, %struct.pointf_s }
%struct.box = type { %struct.point, %struct.point }
%struct.pointf_s = type { double, double }
%struct.obj_state_s = type { ptr, i32, %union.anon, i32, %struct.color_s, %struct.color_s, %struct.color_s, i32, double, i32, i32, double, ptr, double, double, double, ptr, ptr, ptr, ptr, ptr, ptr, ptr, ptr, ptr, ptr, ptr, ptr, ptr, ptr, ptr, ptr, ptr, i16, i32, i64, ptr, i64, ptr, ptr, i32, ptr, i32, ptr }
%union.anon = type { ptr }
%struct.color_s = type { %union.anon.0, i32 }
%union.anon.0 = type { [4 x double] }

@stderr = external global ptr, align 8
@.str.41 = private unnamed_addr constant [49 x i8] c"out of memory when trying to allocate %zu bytes\0A\00", align 1
@.str.43 = private unnamed_addr constant [58 x i8] c"integer overflow when trying to allocate %zu * %zu bytes\0A\00", align 1

; Function Attrs: inlinehint nounwind uwtable
define internal ptr @gv_calloc(i64 noundef %0, i64 noundef %1) #3 {
  %3 = alloca i64, align 8
  %4 = alloca i64, align 8
  %5 = alloca ptr, align 8
  store i64 %0, ptr %3, align 8, !tbaa !49
  store i64 %1, ptr %4, align 8, !tbaa !49
  %6 = load i64, ptr %3, align 8, !tbaa !49
  %7 = icmp ugt i64 %6, 0
  br i1 %7, label %8, label %18

8:                                                ; preds = %2
  %9 = load i64, ptr %3, align 8, !tbaa !49
  %10 = udiv i64 -1, %9
  %11 = load i64, ptr %4, align 8, !tbaa !49
  %12 = icmp ult i64 %10, %11
  br i1 %12, label %13, label %18

13:                                               ; preds = %8
  %14 = load ptr, ptr @stderr, align 8, !tbaa !68
  %15 = load i64, ptr %3, align 8, !tbaa !49
  %16 = load i64, ptr %4, align 8, !tbaa !49
  %17 = call i32 (ptr, ptr, ...) @fprintf(ptr noundef %14, ptr noundef @.str.43, i64 noundef %15, i64 noundef %16) #15
  call void @graphviz_exit(i32 noundef 1) #17
  unreachable

18:                                               ; preds = %8, %2
  call void @llvm.lifetime.start.p0(i64 8, ptr %5) #15
  %19 = load i64, ptr %3, align 8, !tbaa !49
  %20 = load i64, ptr %4, align 8, !tbaa !49
  %21 = call noalias ptr @calloc(i64 noundef %19, i64 noundef %20) #18
  store ptr %21, ptr %5, align 8, !tbaa !8
  %22 = load i64, ptr %3, align 8, !tbaa !49
  %23 = icmp ugt i64 %22, 0
  br i1 %23, label %24, label %36

24:                                               ; preds = %18
  %25 = load i64, ptr %4, align 8, !tbaa !49
  %26 = icmp ugt i64 %25, 0
  br i1 %26, label %27, label %36

27:                                               ; preds = %24
  %28 = load ptr, ptr %5, align 8, !tbaa !8
  %29 = icmp eq ptr %28, null
  br i1 %29, label %30, label %36

30:                                               ; preds = %27
  %31 = load ptr, ptr @stderr, align 8, !tbaa !68
  %32 = load i64, ptr %3, align 8, !tbaa !49
  %33 = load i64, ptr %4, align 8, !tbaa !49
  %34 = mul i64 %32, %33
  %35 = call i32 (ptr, ptr, ...) @fprintf(ptr noundef %31, ptr noundef @.str.41, i64 noundef %34) #15
  call void @graphviz_exit(i32 noundef 1) #17
  unreachable

36:                                               ; preds = %27, %24, %18
  %37 = load ptr, ptr %5, align 8, !tbaa !8
  call void @llvm.lifetime.end.p0(i64 8, ptr %5) #15
  ret ptr %37
}

; Function Attrs: nounwind uwtable
define internal void @map_point(ptr noundef %0, double %1, double %2) #0 {
  %4 = alloca %struct.pointf_s, align 8
  %5 = alloca ptr, align 8
  %6 = alloca ptr, align 8
  %7 = alloca i32, align 4
  %8 = alloca ptr, align 8
  %9 = getelementptr inbounds nuw { double, double }, ptr %4, i32 0, i32 0
  store double %1, ptr %9, align 8
  %10 = getelementptr inbounds nuw { double, double }, ptr %4, i32 0, i32 1
  store double %2, ptr %10, align 8
  store ptr %0, ptr %5, align 8, !tbaa !12
  call void @llvm.lifetime.start.p0(i64 8, ptr %6) #15
  %11 = load ptr, ptr %5, align 8, !tbaa !12
  %12 = getelementptr inbounds nuw %struct.GVJ_s, ptr %11, i32 0, i32 4
  %13 = load ptr, ptr %12, align 8, !tbaa !16
  store ptr %13, ptr %6, align 8, !tbaa !14
  call void @llvm.lifetime.start.p0(i64 4, ptr %7) #15
  %14 = load ptr, ptr %5, align 8, !tbaa !12
  %15 = getelementptr inbounds nuw %struct.GVJ_s, ptr %14, i32 0, i32 26
  %16 = load i32, ptr %15, align 8, !tbaa !66
  store i32 %16, ptr %7, align 4, !tbaa !44
  call void @llvm.lifetime.start.p0(i64 8, ptr %8) #15
  %17 = load i32, ptr %7, align 4, !tbaa !44
  %18 = and i32 %17, 4259840
  %19 = icmp ne i32 %18, 0
  br i1 %19, label %20, label %83

20:                                               ; preds = %3
  %21 = load i32, ptr %7, align 4, !tbaa !44
  %22 = and i32 %21, 131072
  %23 = icmp ne i32 %22, 0
  br i1 %23, label %24, label %29

24:                                               ; preds = %20
  %25 = load ptr, ptr %6, align 8, !tbaa !14
  %26 = getelementptr inbounds nuw %struct.obj_state_s, ptr %25, i32 0, i32 34
  store i32 0, ptr %26, align 4, !tbaa !136
  %27 = load ptr, ptr %6, align 8, !tbaa !14
  %28 = getelementptr inbounds nuw %struct.obj_state_s, ptr %27, i32 0, i32 35
  store i64 2, ptr %28, align 8, !tbaa !137
  br label %34

29:                                               ; preds = %20
  %30 = load ptr, ptr %6, align 8, !tbaa !14
  %31 = getelementptr inbounds nuw %struct.obj_state_s, ptr %30, i32 0, i32 34
  store i32 2, ptr %31, align 4, !tbaa !136
  %32 = load ptr, ptr %6, align 8, !tbaa !14
  %33 = getelementptr inbounds nuw %struct.obj_state_s, ptr %32, i32 0, i32 35
  store i64 4, ptr %33, align 8, !tbaa !137
  br label %34

34:                                               ; preds = %29, %24
  %35 = load ptr, ptr %6, align 8, !tbaa !14
  %36 = getelementptr inbounds nuw %struct.obj_state_s, ptr %35, i32 0, i32 36
  %37 = load ptr, ptr %36, align 8, !tbaa !63
  call void @free(ptr noundef %37) #15
  %38 = load ptr, ptr %6, align 8, !tbaa !14
  %39 = getelementptr inbounds nuw %struct.obj_state_s, ptr %38, i32 0, i32 35
  %40 = load i64, ptr %39, align 8, !tbaa !137
  %41 = call ptr @gv_calloc(i64 noundef %40, i64 noundef 16)
  store ptr %41, ptr %8, align 8, !tbaa !105
  %42 = load ptr, ptr %6, align 8, !tbaa !14
  %43 = getelementptr inbounds nuw %struct.obj_state_s, ptr %42, i32 0, i32 36
  store ptr %41, ptr %43, align 8, !tbaa !63
  %44 = getelementptr inbounds nuw %struct.pointf_s, ptr %4, i32 0, i32 0
  %45 = load double, ptr %44, align 8, !tbaa !110
  %46 = fsub double %45, 3.000000e+00
  %47 = load ptr, ptr %8, align 8, !tbaa !105
  %48 = getelementptr inbounds %struct.pointf_s, ptr %47, i64 0
  %49 = getelementptr inbounds nuw %struct.pointf_s, ptr %48, i32 0, i32 0
  store double %46, ptr %49, align 8, !tbaa !110
  %50 = getelementptr inbounds nuw %struct.pointf_s, ptr %4, i32 0, i32 1
  %51 = load double, ptr %50, align 8, !tbaa !111
  %52 = fsub double %51, 3.000000e+00
  %53 = load ptr, ptr %8, align 8, !tbaa !105
  %54 = getelementptr inbounds %struct.pointf_s, ptr %53, i64 0
  %55 = getelementptr inbounds nuw %struct.pointf_s, ptr %54, i32 0, i32 1
  store double %52, ptr %55, align 8, !tbaa !111
  %56 = getelementptr inbounds nuw %struct.pointf_s, ptr %4, i32 0, i32 0
  %57 = load double, ptr %56, align 8, !tbaa !110
  %58 = fadd double %57, 3.000000e+00
  %59 = load ptr, ptr %8, align 8, !tbaa !105
  %60 = getelementptr inbounds %struct.pointf_s, ptr %59, i64 1
  %61 = getelementptr inbounds nuw %struct.pointf_s, ptr %60, i32 0, i32 0
  store double %58, ptr %61, align 8, !tbaa !110
  %62 = getelementptr inbounds nuw %struct.pointf_s, ptr %4, i32 0, i32 1
  %63 = load double, ptr %62, align 8, !tbaa !111
  %64 = fadd double %63, 3.000000e+00
  %65 = load ptr, ptr %8, align 8, !tbaa !105
  %66 = getelementptr inbounds %struct.pointf_s, ptr %65, i64 1
  %67 = getelementptr inbounds nuw %struct.pointf_s, ptr %66, i32 0, i32 1
  store double %64, ptr %67, align 8, !tbaa !111
  %68 = load i32, ptr %7, align 4, !tbaa !44
  %69 = and i32 %68, 8192
  %70 = icmp ne i32 %69, 0
  br i1 %70, label %76, label %71

71:                                               ; preds = %34
  %72 = load ptr, ptr %5, align 8, !tbaa !12
  %73 = load ptr, ptr %8, align 8, !tbaa !105
  %74 = load ptr, ptr %8, align 8, !tbaa !105
  %75 = call ptr @gvrender_ptf_A(ptr noundef %72, ptr noundef %73, ptr noundef %74, i64 noundef 2)
  br label %76

76:                                               ; preds = %71, %34
  %77 = load i32, ptr %7, align 4, !tbaa !44
  %78 = and i32 %77, 131072
  %79 = icmp ne i32 %78, 0
  br i1 %79, label %82, label %80

80:                                               ; preds = %76
  %81 = load ptr, ptr %8, align 8, !tbaa !105
  call void @rect2poly(ptr noundef %81)
  br label %82

82:                                               ; preds = %80, %76
  br label %83

83:                                               ; preds = %82, %3
  call void @llvm.lifetime.end.p0(i64 8, ptr %8) #15
  call void @llvm.lifetime.end.p0(i64 4, ptr %7) #15
  call void @llvm.lifetime.end.p0(i64 8, ptr %6) #15
  ret void
}

; Function Attrs: nounwind uwtable
define internal void @nodeIntersect(ptr noundef %0, double %1, double %2, i1 noundef zeroext %3, ptr noundef %4, i1 noundef zeroext %5) #0 {
  %7 = alloca %struct.pointf_s, align 8
  %8 = alloca ptr, align 8
  %9 = alloca i8, align 1
  %10 = alloca ptr, align 8
  %11 = alloca i8, align 1
  %12 = alloca ptr, align 8
  %13 = alloca ptr, align 8
  %14 = alloca i8, align 1
  %15 = getelementptr inbounds nuw { double, double }, ptr %7, i32 0, i32 0
  store double %1, ptr %15, align 8
  %16 = getelementptr inbounds nuw { double, double }, ptr %7, i32 0, i32 1
  store double %2, ptr %16, align 8
  store ptr %0, ptr %8, align 8, !tbaa !12
  %17 = zext i1 %3 to i8
  store i8 %17, ptr %9, align 1, !tbaa !133
  store ptr %4, ptr %10, align 8, !tbaa !9
  %18 = zext i1 %5 to i8
  store i8 %18, ptr %11, align 1, !tbaa !133
  call void @llvm.lifetime.start.p0(i64 8, ptr %12) #15
  %19 = load ptr, ptr %8, align 8, !tbaa !12
  %20 = getelementptr inbounds nuw %struct.GVJ_s, ptr %19, i32 0, i32 4
  %21 = load ptr, ptr %20, align 8, !tbaa !16
  store ptr %21, ptr %12, align 8, !tbaa !14
  call void @llvm.lifetime.start.p0(i64 8, ptr %13) #15
  call void @llvm.lifetime.start.p0(i64 1, ptr %14) #15
  %22 = load i8, ptr %9, align 1, !tbaa !133, !range !185, !noundef !186
  %23 = trunc i8 %22 to i1
  br i1 %23, label %24, label %26

24:                                               ; preds = %6
  %25 = load ptr, ptr %10, align 8, !tbaa !9
  store ptr %25, ptr %13, align 8, !tbaa !9
  br label %30

26:                                               ; preds = %6
  %27 = load ptr, ptr %12, align 8, !tbaa !14
  %28 = getelementptr inbounds nuw %struct.obj_state_s, ptr %27, i32 0, i32 20
  %29 = load ptr, ptr %28, align 8, !tbaa !51
  store ptr %29, ptr %13, align 8, !tbaa !9
  br label %30

30:                                               ; preds = %26, %24
  %31 = load i8, ptr %11, align 1, !tbaa !133, !range !185, !noundef !186
  %32 = trunc i8 %31 to i1
  br i1 %32, label %33, label %34

33:                                               ; preds = %30
  store i8 1, ptr %14, align 1, !tbaa !133
  br label %44

34:                                               ; preds = %30
  %35 = load ptr, ptr %12, align 8, !tbaa !14
  %36 = getelementptr inbounds nuw %struct.obj_state_s, ptr %35, i32 0, i32 33
  %37 = load i16, ptr %36, align 8
  %38 = and i16 %37, 1
  %39 = zext i16 %38 to i32
  %40 = icmp ne i32 %39, 0
  br i1 %40, label %41, label %42

41:                                               ; preds = %34
  store i8 1, ptr %14, align 1, !tbaa !133
  br label %43

42:                                               ; preds = %34
  store i8 0, ptr %14, align 1, !tbaa !133
  br label %43

43:                                               ; preds = %42, %41
  br label %44

44:                                               ; preds = %43, %33
  %45 = load ptr, ptr %13, align 8, !tbaa !9
  %46 = icmp ne ptr %45, null
  br i1 %46, label %50, label %47

47:                                               ; preds = %44
  %48 = load i8, ptr %14, align 1, !tbaa !133, !range !185, !noundef !186
  %49 = trunc i8 %48 to i1
  br i1 %49, label %50, label %56

50:                                               ; preds = %47, %44
  %51 = load ptr, ptr %8, align 8, !tbaa !12
  %52 = getelementptr inbounds nuw { double, double }, ptr %7, i32 0, i32 0
  %53 = load double, ptr %52, align 8
  %54 = getelementptr inbounds nuw { double, double }, ptr %7, i32 0, i32 1
  %55 = load double, ptr %54, align 8
  call void @map_point(ptr noundef %51, double %53, double %55)
  br label %56

56:                                               ; preds = %50, %47
  call void @llvm.lifetime.end.p0(i64 1, ptr %14) #15
  call void @llvm.lifetime.end.p0(i64 8, ptr %13) #15
  call void @llvm.lifetime.end.p0(i64 8, ptr %12) #15
  ret void
}