; Function Attrs: nounwind uwtable
define internal fastcc void @nodeIntersect(ptr noundef %0, double %1, double %2, i1 noundef zeroext %3, ptr noundef readnone captures(address) %4, i1 noundef zeroext %5) unnamed_addr #0 {
  %7 = getelementptr inbounds nuw i8, ptr %0, i64 32
  %8 = load ptr, ptr %7, align 8, !tbaa !9
  br i1 %3, label %12, label %9

9:                                                ; preds = %6
  %10 = getelementptr inbounds nuw i8, ptr %8, i64 248
  %11 = load ptr, ptr %10, align 8, !tbaa !45
  br label %12

12:                                               ; preds = %6, %9
  %.08 = phi ptr [ %11, %9 ], [ %4, %6 ]
  br i1 %5, label %.thread, label %13

13:                                               ; preds = %12
  %14 = getelementptr inbounds nuw i8, ptr %8, i64 352
  %15 = load i16, ptr %14, align 8
  %16 = and i16 %15, 1
  %.not = icmp ne i16 %16, 0
  %.not9 = icmp ne ptr %.08, null
  %brmerge = select i1 %.not9, i1 true, i1 %.not
  br i1 %brmerge, label %.thread, label %map_point.exit

.thread:                                          ; preds = %12, %13
  %17 = getelementptr inbounds nuw i8, ptr %0, i64 280
  %18 = load i32, ptr %17, align 8, !tbaa !60
  %19 = and i32 %18, 4259840
  %.not.i = icmp eq i32 %19, 0
  br i1 %.not.i, label %map_point.exit, label %20

20:                                               ; preds = %.thread
  %21 = and i32 %18, 131072
  %.not22.i = icmp eq i32 %21, 0
  %22 = lshr exact i32 %21, 16
  %spec.select.i = xor i32 %22, 2
  %spec.select27.i = select i1 %.not22.i, i64 4, i64 2
  %23 = getelementptr inbounds nuw i8, ptr %8, i64 356
  store i32 %spec.select.i, ptr %23, align 4, !tbaa !135
  %24 = getelementptr inbounds nuw i8, ptr %8, i64 360
  store i64 %spec.select27.i, ptr %24, align 8, !tbaa !136
  %25 = getelementptr inbounds nuw i8, ptr %8, i64 368
  %26 = load ptr, ptr %25, align 8, !tbaa !57
  tail call void @free(ptr noundef %26) #27
  %27 = load i64, ptr %24, align 8, !tbaa !136
  %.not25.i = icmp eq i64 %27, 0
  br i1 %.not25.i, label %.thread.i, label %29

.thread.i:                                        ; preds = %20
  %28 = tail call noalias ptr @calloc(i64 noundef 0, i64 noundef 16) #28
  br label %gv_calloc.exit.i

29:                                               ; preds = %20
  %mul.ov.i.i = icmp ugt i64 %27, 1152921504606846975
  br i1 %mul.ov.i.i, label %30, label %33

30:                                               ; preds = %29
  %31 = load ptr, ptr @stderr, align 8, !tbaa !6
  %32 = tail call i32 (ptr, ptr, ...) @fprintf(ptr noundef %31, ptr noundef nonnull @.str.43, i64 noundef %27, i64 noundef 16) #29
  tail call fastcc void @graphviz_exit() #30
  unreachable

33:                                               ; preds = %29
  %34 = tail call noalias ptr @calloc(i64 noundef %27, i64 noundef 16) #28
  %35 = icmp eq ptr %34, null
  br i1 %35, label %36, label %gv_calloc.exit.i

36:                                               ; preds = %33
  %37 = load ptr, ptr @stderr, align 8, !tbaa !6
  %38 = shl nuw i64 %27, 4
  %39 = tail call i32 (ptr, ptr, ...) @fprintf(ptr noundef %37, ptr noundef nonnull @.str.41, i64 noundef %38) #29
  tail call fastcc void @graphviz_exit() #30
  unreachable

gv_calloc.exit.i:                                 ; preds = %33, %.thread.i
  %40 = phi ptr [ %28, %.thread.i ], [ %34, %33 ]
  store ptr %40, ptr %25, align 8, !tbaa !57
  %41 = fadd double %1, -3.000000e+00
  store double %41, ptr %40, align 8, !tbaa !127
  %42 = fadd double %2, -3.000000e+00
  %43 = getelementptr inbounds nuw i8, ptr %40, i64 8
  store double %42, ptr %43, align 8, !tbaa !139
  %44 = fadd double %1, 3.000000e+00
  %45 = getelementptr inbounds nuw i8, ptr %40, i64 16
  store double %44, ptr %45, align 8, !tbaa !127
  %46 = fadd double %2, 3.000000e+00
  %47 = getelementptr inbounds nuw i8, ptr %40, i64 24
  store double %46, ptr %47, align 8, !tbaa !139
  %48 = and i32 %18, 8192
  %.not23.i = icmp eq i32 %48, 0
  br i1 %.not23.i, label %49, label %51

49:                                               ; preds = %gv_calloc.exit.i
  %50 = tail call ptr @gvrender_ptf_A(ptr noundef nonnull %0, ptr noundef nonnull %40, ptr noundef nonnull %40, i64 noundef 2) #27
  br label %51

51:                                               ; preds = %49, %gv_calloc.exit.i
  br i1 %.not22.i, label %52, label %map_point.exit

52:                                               ; preds = %51
  tail call void @rect2poly(ptr noundef nonnull %40) #27
  br label %map_point.exit

map_point.exit:                                   ; preds = %52, %51, %.thread, %13
  ret void
}